"File: ADXL345_SPI.c  Assembler  Version HGASM0202      Page 1


   1  0000              ; Generated by holtek-gcc v3.18, Wed Jul 18 22:28:36 2018
   2  0000              ; 
   3  0000              ; Configuration:
   4  0000              ;       with long instruction
   5  0000              ;       Multi-ROM, Multi-RAM
   6  0000              ;       bits_per_rom_unit:16
   7  0000              ;       with mp1
   8  0000              ;       with tbhp, address(0x9)
   9  0000              ;          Use tabrd-const
  10  0000              ;       
  11  0000              ; SFR address of long-instruction arch:
  12  0000              ;    mp0 = -1,1,0
  13  0000              ;    mp1 = 4,3,2
  14  0000              ;    mp2 = 14,13,12
  15  0000              ;    tbp = 9,7,8
  16  0000              ;    acc = 5
  17  0000              ;    pcl = 6
  18  0000              ;    status = 10
  19  0000              ;    bp = 11
  20  0000              ;    intc = 48
  21  0000              ;       
  22  0000              ;       
  23  0000              ; use 'tabrdc' instead of 'tabrd'
  24  0000              ;       
  25  0000              
  26  0000              #pragma translator "holtek-gcc 4.6.4" "3.18" "build 20130711"
  27  0000              ; Rebuild 521
  28  0000              
  29  0000              ir equ [2]
  30  0000              mp equ [3]
  31  0000              sbp equ [4]
  32  0000              acc equ [5]
  33  0000              bp equ [11]
  34  0000              tblp equ [7]
  35  0000              tbhp equ [9]
  36  0000              status equ [10]
  37  0000              c equ [10].0
  38  0000              ac equ [10].1
  39  0000              z equ [10].2
  40  0000              ov equ [10].3
  41  0000              cz equ [10].6
  42  0000              sc equ [10].7
  43  0000              intc equ [48]
  44  0000              
  45  0000              extern ra:byte
  46  0000              extern rb:byte
  47  0000              extern rc:byte
  48  0000              extern rd:byte
  49  0000              extern re:byte
  50  0000              extern rf:byte
  51  0000              extern rg:byte
  52  0000              extern rh:byte
  53  0000              extern _Crom2Prom:near
  54  0000              extern _Crom2PromNext:near
  55  0000              
  56  0000              RAMBANK 0 @BITDATASEC, @BITDATASEC1
  57  0000              @HCCINIT	.section 'data'
  58  0000              @HCCINIT0	.section 'data'
  59  0000              @BITDATASEC	 .section 'data'
"File: ADXL345_SPI.ASM  Assembler  Version HGASM0202      Page 2

  60  0000              @BITDATASEC1	 .section 'data'
  61  0000              
  62  0000              #pragma debug scope 1 1
  63  0000              	extern __DELAY3:near
  64  0000              	extern __DELAYX3:near
  65  0000              	extern __DELAYX6:near
  66  0000              	extern __DELAYY5:near
  67  0000              	extern __DELAYY3:near
  68  0000              	extern _builtin_holtek_delay_2:byte
  69  0000              ___wdtc equ [62]
  70  0000              ___cp0c equ [70]
  71  0000              ___cp1c equ [71]
  72  0000              ___scomc equ [127]
  73  0000              ___smod equ [58]
  74  0000              ___pac equ [19]
  75  0000              ___pbc equ [23]
  76  0000              ___phc equ [47]
  77  0000              ___pa equ [18]
  78  0000              ___pb equ [22]
  79  0000              ___pgc equ [43]
  80  0000              public _PinSet
  81  0000              #pragma debug scope 2 1

 115  0000              #line 115 "C:\Users\IIIT\Desktop\ADXL345\try1\ADXL345_SPI\ADXL345_SPI.c"
 115  0000              _PinSet .section 'code'
 115  0000              _PinSet proc
 116  0000              #line 116 "C:\Users\IIIT\Desktop\ADXL345\try1\ADXL345_SPI\ADXL345_SPI.c"
 116  0000  0FAF        	mov a,175
 116  0001  00BE        	mov [62],a
 117  0002              #line 117 "C:\Users\IIIT\Desktop\ADXL345\try1\ADXL345_SPI\ADXL345_SPI.c"
 117  0002  1F46        	clr [70]
 118  0003              #line 118 "C:\Users\IIIT\Desktop\ADXL345\try1\ADXL345_SPI\ADXL345_SPI.c"
 118  0003  1F47        	clr [71]
 119  0004              #line 119 "C:\Users\IIIT\Desktop\ADXL345\try1\ADXL345_SPI\ADXL345_SPI.c"
 119  0004  367F        	clr [127].4
 120  0005              #line 120 "C:\Users\IIIT\Desktop\ADXL345\try1\ADXL345_SPI\ADXL345_SPI.c"
 120  0005  0FE0        	mov a,224
 120  0006  00BA        	mov [58],a
 122  0007              #line 122 "C:\Users\IIIT\Desktop\ADXL345\try1\ADXL345_SPI\ADXL345_SPI.c"
 122  0007  3693        	clr [19].5
 122  0008  3313        	set [19].6
 122  0009  3793        	clr [19].7
 122  000A  3697        	clr [23].5
 123  000B              #line 123 "C:\Users\IIIT\Desktop\ADXL345\try1\ADXL345_SPI\ADXL345_SPI.c"
 123  000B  342F        	clr [47].0
 123  000C  34AF        	clr [47].1
 123  000D  352F        	clr [47].2
 124  000E              #line 124 "C:\Users\IIIT\Desktop\ADXL345\try1\ADXL345_SPI\ADXL345_SPI.c"
 124  000E  3392        	set [18].7
 124  000F  3296        	set [22].5
 125  0010              #line 125 "C:\Users\IIIT\Desktop\ADXL345\try1\ADXL345_SPI\ADXL345_SPI.c"
 125  0010  1F2B        	clr [43]
 125  0011  0003        	ret
 125  0012              _PinSet endp
 125  0012              #line 125 "C:\Users\IIIT\Desktop\ADXL345\try1\ADXL345_SPI\ADXL345_SPI.c"
 125  0012              #pragma debug scope 1 1
 125  0012              public _Delay100us
 125  0012              #pragma debug scope 3 1
 175  0012              #line 175 "C:\Users\IIIT\Desktop\ADXL345\try1\ADXL345_SPI\ADXL345_SPI.c"
 175  0000              _Delay100us .section 'code'
"File: ADXL345_SPI.c  Assembler  Version HGASM0202      Page 3

 175  0000              _Delay100us proc
 175  0000              public _Delay100us_2
 175  0000  0002[           local _Delay100us_2 db 2 dup(?)	; 2,0
            00
            ]
 175  0002              #pragma debug variable 9 3 _Delay100us_2+0 "del"
 175  0000  0700     R  	mov a,_Delay100us_2[0]
 175  0001  0080     E  	mov rd,a
 175  0002  0700     R  	mov a,_Delay100us_2[1]
 175  0003  0080     E  	mov re,a
 176  0004              #line 176 "C:\Users\IIIT\Desktop\ADXL345\try1\ADXL345_SPI\ADXL345_SPI.c"
 176  0004  1F00     E  	clr rb
 176  0005  1F00     E  	clr rc
 176  0006              _L3:
 176  0006              #line 176 "C:\Users\IIIT\Desktop\ADXL345\try1\ADXL345_SPI\ADXL345_SPI.c"
 176  0006  0700     E  	mov a,rb
 176  0007  0200     E  	sub a,rd
 176  0008  0700     E  	mov a,rc
 176  0009  1200     E  	sbc a,re
 176  000A  3F0A        	sz cz
 176  000B  2800     R  	jmp _L2
 176  000C  1F00     E  	clr ra
 176  000D              _L6:
 177  000D              #line 177 "C:\Users\IIIT\Desktop\ADXL345\try1\ADXL345_SPI\ADXL345_SPI.c"
 177  000D              ;# 177 "C:\Users\IIIT\Desktop\ADXL345\try1\ADXL345_SPI\ADXL345_SPI.c" 1
 177  000D  0000        	nop
 177  000E  1480     E  	inc ra
 177  000F  0700     E  	mov a,ra
 177  0010  0A1A        	sub a,26
 177  0011  390A        	snz z
 177  0012  2800     R  	jmp _L6
 176  0013              #line 176 "C:\Users\IIIT\Desktop\ADXL345\try1\ADXL345_SPI\ADXL345_SPI.c"
 176  0013  1480     E  	inc rb
 176  0014  3D0A        	sz z
 176  0015  1480     E  	inc rc
 176  0016  2800     R  	jmp _L3
 176  0017              _L2:
 176  0017  0003        	ret
 176  0018              _Delay100us endp
 176  0018              #line 176 "C:\Users\IIIT\Desktop\ADXL345\try1\ADXL345_SPI\ADXL345_SPI.c"
 176  0018              #pragma debug scope 1 1
 176  0018              public __SPI_CS
 176  0018              #pragma debug scope 4 1
 184  0018              #line 184 "C:\Users\IIIT\Desktop\ADXL345\try1\ADXL345_SPI\ADXL345_SPI.c"
 184  0000              __SPI_CS .section 'code'
 184  0000              __SPI_CS proc
 184  0000              public __SPI_CS_2
 184  0000  0002[           local __SPI_CS_2 db 2 dup(?)	; 2,0
            00
            ]
 184  0002              #pragma debug variable 10 4 __SPI_CS_2+0 "isSelect"
 185  0002              #line 185 "C:\Users\IIIT\Desktop\ADXL345\try1\ADXL345_SPI\ADXL345_SPI.c"
 185  0000  0700     R  	mov a,__SPI_CS_2[0]
 185  0001  0E01        	and a,1
 185  0002  0080     E  	mov ra,a
 185  0003  1100     E  	swapa ra
 185  0004  1885        	rl acc
 185  0005  0EE0        	and a,0e0h
 185  0006  0080     E  	mov ra,a
 185  0007  3696        	clr [22].5
"File: ADXL345_SPI.c  Assembler  Version HGASM0202      Page 4

 185  0008  0700     E  	mov a,ra
 185  0009  0596        	orm a,[22]
 185  000A  0003        	ret
 185  000B              __SPI_CS endp
 185  000B              #line 185 "C:\Users\IIIT\Desktop\ADXL345\try1\ADXL345_SPI\ADXL345_SPI.c"
 185  000B              #pragma debug scope 1 1
 185  000B              public __SPI_SCL
 185  000B              #pragma debug scope 5 1
 193  000B              #line 193 "C:\Users\IIIT\Desktop\ADXL345\try1\ADXL345_SPI\ADXL345_SPI.c"
 193  0000              __SPI_SCL .section 'code'
 193  0000              __SPI_SCL proc
 193  0000              public __SPI_SCL_2
 193  0000  0002[           local __SPI_SCL_2 db 2 dup(?)	; 2,0
            00
            ]
 193  0002              #pragma debug variable 10 5 __SPI_SCL_2+0 "bLevel"
 194  0002              #line 194 "C:\Users\IIIT\Desktop\ADXL345\try1\ADXL345_SPI\ADXL345_SPI.c"
 194  0000  0700     R  	mov a,__SPI_SCL_2[0]
 194  0001  0080     E  	mov ra,a
 194  0002  1B80     E  	rrc ra
 194  0003  1F00     E  	clr ra
 194  0004  1B80     E  	rrc ra
 194  0005  3792        	clr [18].7
 194  0006  0700     E  	mov a,ra
 194  0007  0592        	orm a,[18]
 194  0008  0003        	ret
 194  0009              __SPI_SCL endp
 194  0009              #line 194 "C:\Users\IIIT\Desktop\ADXL345\try1\ADXL345_SPI\ADXL345_SPI.c"
 194  0009              #pragma debug scope 1 1
 194  0009              public _ADXL345_SPI_Read
 194  0009              #pragma debug scope 6 1
 133  0009              #line 133 "C:\Users\IIIT\Desktop\ADXL345\try1\ADXL345_SPI\ADXL345_SPI.c"
 133  0000              _ADXL345_SPI_Read .section 'code'
 133  0000              _ADXL345_SPI_Read proc
 133  0000  0002[           local _ADXL345_SPI_Read_2 db 2 dup(?)	; 0,2
            00
            ]
 133  0000  0080     R  	mov _ADXL345_SPI_Read_2[0],a
 133  0001              #pragma debug variable 8 6 _ADXL345_SPI_Read_2+0 "Address"
 133  0001              #pragma debug variable 8 6 _ADXL345_SPI_Read_2+1 "ReadData"
 136  0001              #line 136 "C:\Users\IIIT\Desktop\ADXL345\try1\ADXL345_SPI\ADXL345_SPI.c"
 136  0001  1F00     R  	clr __SPI_CS_2[0]
 136  0002  1F00     R  	clr __SPI_CS_2[1]
 136  0003              	fcall __SPI_CS
 137  000A              #line 137 "C:\Users\IIIT\Desktop\ADXL345\try1\ADXL345_SPI\ADXL345_SPI.c"
 137  000A  0F07        	mov a,7
 137  000B  0080     R  	mov _a[0],a
 137  000C  1F00     R  	clr _a[1]
 137  000D              _L12:
 140  000D              #line 140 "C:\Users\IIIT\Desktop\ADXL345\try1\ADXL345_SPI\ADXL345_SPI.c"
 140  000D  0F01        	mov a,1
 140  000E  0080     R  	mov __SPI_SCL_2[0],a
 140  000F  1F00     R  	clr __SPI_SCL_2[1]
 140  0010              	fcall __SPI_SCL
 141  0017              #line 141 "C:\Users\IIIT\Desktop\ADXL345\try1\ADXL345_SPI\ADXL345_SPI.c"
 141  0017  0700     R  	mov a,_ADXL345_SPI_Read_2[0]
 141  0018  0080     E  	mov rb,a
 141  0019  3000     E  	set rb.7
 141  001A  1F00     E  	clr rc
 141  001B  1400     R  	inca _a[0]
"File: ADXL345_SPI.c  Assembler  Version HGASM0202      Page 5

 141  001C  2800     R  	jmp _LI1
 141  001D              _LI2:
 141  001D  340A        	clr c
 141  001E  3C00     E  	sz rc.7
 141  001F  300A        	set c
 141  0020  1B80     E  	rrc rc
 141  0021  1B80     E  	rrc rb
 141  0022              _LI1:
 141  0022  1785        	sdz acc
 141  0023  2800     R  	jmp _LI2
 141  0024  0F01        	mov a,1
 141  0025  0680     E  	andm a,rb
 141  0026  1100     E  	swapa rb
 141  0027  1885        	rl acc
 141  0028  0EE0        	and a,0e0h
 141  0029  0080     E  	mov rb,a
 141  002A  3692        	clr [18].5
 141  002B  0700     E  	mov a,rb
 141  002C  0592        	orm a,[18]
 142  002D              #line 142 "C:\Users\IIIT\Desktop\ADXL345\try1\ADXL345_SPI\ADXL345_SPI.c"
 142  002D  1F00     R  	clr __SPI_SCL_2[0]
 142  002E  1F00     R  	clr __SPI_SCL_2[1]
 142  002F              	fcall __SPI_SCL
 143  0036              #line 143 "C:\Users\IIIT\Desktop\ADXL345\try1\ADXL345_SPI\ADXL345_SPI.c"
 143  0036  0FFF        	mov a,255
 143  0037  0300     R  	add a,_a[0]
 143  0038  0080     E  	mov rb,a
 143  0039  0FFF        	mov a,255
 143  003A  1300     R  	adc a,_a[1]
 143  003B  0080     E  	mov rc,a
 143  003C  0700     E  	mov a,rb
 143  003D  0080     R  	mov _a[0],a
 143  003E  0700     E  	mov a,rc
 143  003F  0080     R  	mov _a[1],a
 144  0040              #line 144 "C:\Users\IIIT\Desktop\ADXL345\try1\ADXL345_SPI\ADXL345_SPI.c"
 144  0040  0700     E  	mov a,rb
 144  0041  0500     E  	or a,rc
 144  0042  390A        	snz z
 144  0043  2800     R  	jmp _L12
 146  0044              #line 146 "C:\Users\IIIT\Desktop\ADXL345\try1\ADXL345_SPI\ADXL345_SPI.c"
 146  0044  0F01        	mov a,1
 146  0045  0080     R  	mov __SPI_SCL_2[0],a
 146  0046  1F00     R  	clr __SPI_SCL_2[1]
 146  0047              	fcall __SPI_SCL
 148  004E              #line 148 "C:\Users\IIIT\Desktop\ADXL345\try1\ADXL345_SPI\ADXL345_SPI.c"
 148  004E  0F07        	mov a,7
 148  004F  0080     R  	mov _a[0],a
 148  0050  1F00     R  	clr _a[1]
 134  0051              #line 134 "C:\Users\IIIT\Desktop\ADXL345\try1\ADXL345_SPI\ADXL345_SPI.c"
 134  0051  1F00     R  	clr _ADXL345_SPI_Read_2[1]
 134  0052              _L14:
 151  0052              #line 151 "C:\Users\IIIT\Desktop\ADXL345\try1\ADXL345_SPI\ADXL345_SPI.c"
 151  0052  1F00     R  	clr __SPI_SCL_2[0]
 151  0053  1F00     R  	clr __SPI_SCL_2[1]
 151  0054              	fcall __SPI_SCL
 152  005B              #line 152 "C:\Users\IIIT\Desktop\ADXL345\try1\ADXL345_SPI\ADXL345_SPI.c"
 152  005B  0F01        	mov a,1
 152  005C  0080     R  	mov __SPI_SCL_2[0],a
 152  005D  1F00     R  	clr __SPI_SCL_2[1]
 152  005E              	fcall __SPI_SCL
"File: ADXL345_SPI.c  Assembler  Version HGASM0202      Page 6

 153  0065              #line 153 "C:\Users\IIIT\Desktop\ADXL345\try1\ADXL345_SPI\ADXL345_SPI.c"
 153  0065  1F00     E  	clr rd
 153  0066  3F12        	sz [18].6
 153  0067  1480     E  	inc rd
 154  0068              #line 154 "C:\Users\IIIT\Desktop\ADXL345\try1\ADXL345_SPI\ADXL345_SPI.c"
 154  0068  0700     R  	mov a,_a[0]
 154  0069  0080     E  	mov rb,a
 154  006A  0700     R  	mov a,_a[1]
 154  006B  0080     E  	mov rc,a
 154  006C  1F00     E  	clr re
 154  006D  1400     E  	inca rb
 154  006E  2800     R  	jmp _LI3
 154  006F              _LI4:
 154  006F  340A        	clr c
 154  0070  1A80     E  	rlc rd
 154  0071  1A80     E  	rlc re
 154  0072              _LI3:
 154  0072  1785        	sdz acc
 154  0073  2800     R  	jmp _LI4
 154  0074  0700     E  	mov a,rd
 154  0075  0580     R  	orm a,_ADXL345_SPI_Read_2[1]
 155  0076              #line 155 "C:\Users\IIIT\Desktop\ADXL345\try1\ADXL345_SPI\ADXL345_SPI.c"
 155  0076  0FFF        	mov a,255
 155  0077  0300     E  	add a,rb
 155  0078  0080     R  	mov _a[0],a
 155  0079  0FFF        	mov a,255
 155  007A  1300     E  	adc a,rc
 155  007B  0080     R  	mov _a[1],a
 155  007C  0700     E  	mov a,rb
 155  007D  0500     E  	or a,rc
 155  007E  390A        	snz z
 155  007F  2800     R  	jmp _L14
 157  0080              #line 157 "C:\Users\IIIT\Desktop\ADXL345\try1\ADXL345_SPI\ADXL345_SPI.c"
 157  0080  0F01        	mov a,1
 157  0081  0080     R  	mov __SPI_CS_2[0],a
 157  0082  1F00     R  	clr __SPI_CS_2[1]
 157  0083              	fcall __SPI_CS
 159  008A              #line 159 "C:\Users\IIIT\Desktop\ADXL345\try1\ADXL345_SPI\ADXL345_SPI.c"
 159  008A  0700     R  	mov a,_ADXL345_SPI_Read_2[1]
 159  008B  0003        	ret
 159  008C              _ADXL345_SPI_Read endp
 159  008C              #line 159 "C:\Users\IIIT\Desktop\ADXL345\try1\ADXL345_SPI\ADXL345_SPI.c"
 159  008C              #pragma debug scope 1 1
 159  008C              public _ADXL345_SPI_Write
 159  008C              #pragma debug scope 7 1
 202  008C              #line 202 "C:\Users\IIIT\Desktop\ADXL345\try1\ADXL345_SPI\ADXL345_SPI.c"
 202  0000              _ADXL345_SPI_Write .section 'code'
 202  0000              _ADXL345_SPI_Write proc
 202  0000              public _ADXL345_SPI_Write_2
 202  0000  0002[           local _ADXL345_SPI_Write_2 db 2 dup(?)	; 1,1
            00
            ]
 202  0000  0080     R  	mov _ADXL345_SPI_Write_2[1],a
 202  0001              #pragma debug variable 8 7 _ADXL345_SPI_Write_2+1 "Address"
 202  0001              #pragma debug variable 8 7 _ADXL345_SPI_Write_2+0 "WriteData"
 203  0001              #line 203 "C:\Users\IIIT\Desktop\ADXL345\try1\ADXL345_SPI\ADXL345_SPI.c"
 203  0001  1F00     R  	clr __SPI_CS_2[0]
 203  0002  1F00     R  	clr __SPI_CS_2[1]
 203  0003              	fcall __SPI_CS
 204  000A              #line 204 "C:\Users\IIIT\Desktop\ADXL345\try1\ADXL345_SPI\ADXL345_SPI.c"
"File: ADXL345_SPI.c  Assembler  Version HGASM0202      Page 7

 204  000A  0F07        	mov a,7
 204  000B  0080     R  	mov _b[0],a
 204  000C  1F00     R  	clr _b[1]
 204  000D              _L17:
 207  000D              #line 207 "C:\Users\IIIT\Desktop\ADXL345\try1\ADXL345_SPI\ADXL345_SPI.c"
 207  000D  0F01        	mov a,1
 207  000E  0080     R  	mov __SPI_SCL_2[0],a
 207  000F  1F00     R  	clr __SPI_SCL_2[1]
 207  0010              	fcall __SPI_SCL
 208  0017              #line 208 "C:\Users\IIIT\Desktop\ADXL345\try1\ADXL345_SPI\ADXL345_SPI.c"
 208  0017  0700     R  	mov a,_ADXL345_SPI_Write_2[1]
 208  0018  0080     E  	mov rb,a
 208  0019  3400     E  	clr rb.7
 208  001A  1F00     E  	clr rc
 208  001B  1400     R  	inca _b[0]
 208  001C  2800     R  	jmp _LI5
 208  001D              _LI6:
 208  001D  340A        	clr c
 208  001E  3C00     E  	sz rc.7
 208  001F  300A        	set c
 208  0020  1B80     E  	rrc rc
 208  0021  1B80     E  	rrc rb
 208  0022              _LI5:
 208  0022  1785        	sdz acc
 208  0023  2800     R  	jmp _LI6
 208  0024  0F01        	mov a,1
 208  0025  0680     E  	andm a,rb
 208  0026  1100     E  	swapa rb
 208  0027  1885        	rl acc
 208  0028  0EE0        	and a,0e0h
 208  0029  0080     E  	mov rb,a
 208  002A  3692        	clr [18].5
 208  002B  0700     E  	mov a,rb
 208  002C  0592        	orm a,[18]
 209  002D              #line 209 "C:\Users\IIIT\Desktop\ADXL345\try1\ADXL345_SPI\ADXL345_SPI.c"
 209  002D  1F00     R  	clr __SPI_SCL_2[0]
 209  002E  1F00     R  	clr __SPI_SCL_2[1]
 209  002F              	fcall __SPI_SCL
 210  0036              #line 210 "C:\Users\IIIT\Desktop\ADXL345\try1\ADXL345_SPI\ADXL345_SPI.c"
 210  0036  0FFF        	mov a,255
 210  0037  0300     R  	add a,_b[0]
 210  0038  0080     E  	mov rb,a
 210  0039  0FFF        	mov a,255
 210  003A  1300     R  	adc a,_b[1]
 210  003B  0080     E  	mov rc,a
 210  003C  0700     E  	mov a,rb
 210  003D  0080     R  	mov _b[0],a
 210  003E  0700     E  	mov a,rc
 210  003F  0080     R  	mov _b[1],a
 211  0040              #line 211 "C:\Users\IIIT\Desktop\ADXL345\try1\ADXL345_SPI\ADXL345_SPI.c"
 211  0040  0700     E  	mov a,rb
 211  0041  0500     E  	or a,rc
 211  0042  390A        	snz z
 211  0043  2800     R  	jmp _L17
 213  0044              #line 213 "C:\Users\IIIT\Desktop\ADXL345\try1\ADXL345_SPI\ADXL345_SPI.c"
 213  0044  0F07        	mov a,7
 213  0045  0080     R  	mov _b[0],a
 213  0046  1F00     R  	clr _b[1]
 213  0047              _L19:
 216  0047              #line 216 "C:\Users\IIIT\Desktop\ADXL345\try1\ADXL345_SPI\ADXL345_SPI.c"
"File: ADXL345_SPI.c  Assembler  Version HGASM0202      Page 8

 216  0047  0F01        	mov a,1
 216  0048  0080     R  	mov __SPI_SCL_2[0],a
 216  0049  1F00     R  	clr __SPI_SCL_2[1]
 216  004A              	fcall __SPI_SCL
 217  0051              #line 217 "C:\Users\IIIT\Desktop\ADXL345\try1\ADXL345_SPI\ADXL345_SPI.c"
 217  0051  0700     R  	mov a,_ADXL345_SPI_Write_2[0]
 217  0052  0080     E  	mov rb,a
 217  0053  1F00     E  	clr rc
 217  0054  1400     R  	inca _b[0]
 217  0055  2800     R  	jmp _LI7
 217  0056              _LI8:
 217  0056  340A        	clr c
 217  0057  3C00     E  	sz rc.7
 217  0058  300A        	set c
 217  0059  1B80     E  	rrc rc
 217  005A  1B80     E  	rrc rb
 217  005B              _LI7:
 217  005B  1785        	sdz acc
 217  005C  2800     R  	jmp _LI8
 217  005D  0F01        	mov a,1
 217  005E  0680     E  	andm a,rb
 217  005F  1100     E  	swapa rb
 217  0060  1885        	rl acc
 217  0061  0EE0        	and a,0e0h
 217  0062  0080     E  	mov rb,a
 217  0063  3692        	clr [18].5
 217  0064  0700     E  	mov a,rb
 217  0065  0592        	orm a,[18]
 218  0066              #line 218 "C:\Users\IIIT\Desktop\ADXL345\try1\ADXL345_SPI\ADXL345_SPI.c"
 218  0066  1F00     R  	clr __SPI_SCL_2[0]
 218  0067  1F00     R  	clr __SPI_SCL_2[1]
 218  0068              	fcall __SPI_SCL
 219  006F              #line 219 "C:\Users\IIIT\Desktop\ADXL345\try1\ADXL345_SPI\ADXL345_SPI.c"
 219  006F  0FFF        	mov a,255
 219  0070  0300     R  	add a,_b[0]
 219  0071  0080     E  	mov rb,a
 219  0072  0FFF        	mov a,255
 219  0073  1300     R  	adc a,_b[1]
 219  0074  0080     E  	mov rc,a
 219  0075  0700     E  	mov a,rb
 219  0076  0080     R  	mov _b[0],a
 219  0077  0700     E  	mov a,rc
 219  0078  0080     R  	mov _b[1],a
 220  0079              #line 220 "C:\Users\IIIT\Desktop\ADXL345\try1\ADXL345_SPI\ADXL345_SPI.c"
 220  0079  0700     E  	mov a,rb
 220  007A  0500     E  	or a,rc
 220  007B  390A        	snz z
 220  007C  2800     R  	jmp _L19
 221  007D              #line 221 "C:\Users\IIIT\Desktop\ADXL345\try1\ADXL345_SPI\ADXL345_SPI.c"
 221  007D  0F01        	mov a,1
 221  007E  0080     R  	mov __SPI_CS_2[0],a
 221  007F  1F00     R  	clr __SPI_CS_2[1]
 221  0080              	fcall __SPI_CS
 221  0087  0003        	ret
 221  0088              _ADXL345_SPI_Write endp
 221  0088              #line 221 "C:\Users\IIIT\Desktop\ADXL345\try1\ADXL345_SPI\ADXL345_SPI.c"
 221  0088              #pragma debug scope 1 1
 221  0088              ___pg equ [42]
 221  0088              ___ph equ [46]
 221  0088              public _LCD_Cmd
"File: ADXL345_SPI.c  Assembler  Version HGASM0202      Page 9

 221  0088              #pragma debug scope 8 1
 226  0088              #line 226 "C:\Users\IIIT\Desktop\ADXL345\try1\ADXL345_SPI\ADXL345_SPI.c"
 226  0000              _LCD_Cmd .section 'code'
 226  0000              _LCD_Cmd proc
 226  0000  00              local _LCD_Cmd_2 db 1 dup(?)	; 0,1
 226  0000  0080     E  	mov ra,a
 226  0001  0080     R  	mov _LCD_Cmd_2[0],a
 226  0002              #pragma debug variable 8 8 _LCD_Cmd_2+0 "data"
 227  0002              #line 227 "C:\Users\IIIT\Desktop\ADXL345\try1\ADXL345_SPI\ADXL345_SPI.c"
 227  0002  0700     E  	mov a,ra
 227  0003  00AA        	mov [42],a
 228  0004              #line 228 "C:\Users\IIIT\Desktop\ADXL345\try1\ADXL345_SPI\ADXL345_SPI.c"
 228  0004  342E        	clr [46].0
 228  0005  34AE        	clr [46].1
 228  0006  312E        	set [46].2
 229  0007              #line 229 "C:\Users\IIIT\Desktop\ADXL345\try1\ADXL345_SPI\ADXL345_SPI.c"
 229  0007  0F14        	mov a,20
 229  0008  0080     R  	mov _Delay100us_2[0],a
 229  0009  1F00     R  	clr _Delay100us_2[1]
 229  000A              	fcall _Delay100us
 230  0011              #line 230 "C:\Users\IIIT\Desktop\ADXL345\try1\ADXL345_SPI\ADXL345_SPI.c"
 230  0011  352E        	clr [46].2
 230  0012  0003        	ret
 230  0013              _LCD_Cmd endp
 230  0013              #line 230 "C:\Users\IIIT\Desktop\ADXL345\try1\ADXL345_SPI\ADXL345_SPI.c"
 230  0013              #pragma debug scope 1 1
 230  0013              public _LCD_Senddata
 230  0013              #pragma debug scope 9 1
 234  0013              #line 234 "C:\Users\IIIT\Desktop\ADXL345\try1\ADXL345_SPI\ADXL345_SPI.c"
 234  0000              _LCD_Senddata .section 'code'
 234  0000              _LCD_Senddata proc
 234  0000  00              local _LCD_Senddata_2 db 1 dup(?)	; 0,1
 234  0000  0080     E  	mov ra,a
 234  0001  0080     R  	mov _LCD_Senddata_2[0],a
 234  0002              #pragma debug variable 8 9 _LCD_Senddata_2+0 "data"
 235  0002              #line 235 "C:\Users\IIIT\Desktop\ADXL345\try1\ADXL345_SPI\ADXL345_SPI.c"
 235  0002  0700     E  	mov a,ra
 235  0003  00AA        	mov [42],a
 236  0004              #line 236 "C:\Users\IIIT\Desktop\ADXL345\try1\ADXL345_SPI\ADXL345_SPI.c"
 236  0004  302E        	set [46].0
 236  0005  34AE        	clr [46].1
 236  0006  312E        	set [46].2
 237  0007              #line 237 "C:\Users\IIIT\Desktop\ADXL345\try1\ADXL345_SPI\ADXL345_SPI.c"
 237  0007  0F14        	mov a,20
 237  0008  0080     R  	mov _Delay100us_2[0],a
 237  0009  1F00     R  	clr _Delay100us_2[1]
 237  000A              	fcall _Delay100us
 238  0011              #line 238 "C:\Users\IIIT\Desktop\ADXL345\try1\ADXL345_SPI\ADXL345_SPI.c"
 238  0011  352E        	clr [46].2
 238  0012  0003        	ret
 238  0013              _LCD_Senddata endp
 238  0013              #line 238 "C:\Users\IIIT\Desktop\ADXL345\try1\ADXL345_SPI\ADXL345_SPI.c"
 238  0013              #pragma debug scope 1 1
 238  0013              public _PrintLCD
 238  0013              #pragma debug scope 10 1
 165  0013              #line 165 "C:\Users\IIIT\Desktop\ADXL345\try1\ADXL345_SPI\ADXL345_SPI.c"
 165  0000              _PrintLCD .section 'code'
 165  0000              _PrintLCD proc
 165  0000  00              local _PrintLCD_2 db 1 dup(?)	; 0,1
 165  0000  0080     E  	mov ra,a
"File: ADXL345_SPI.c  Assembler  Version HGASM0202      Page 10

 165  0001  0080     R  	mov _PrintLCD_2[0],a
 165  0002              #pragma debug variable 8 10 _PrintLCD_2+0 "data"
 166  0002              #line 166 "C:\Users\IIIT\Desktop\ADXL345\try1\ADXL345_SPI\ADXL345_SPI.c"
 166  0002  1F00     E  	clr _builtin_holtek_udivmodqi4_2[3]
 166  0003  0700     E  	mov a,ra
 166  0004  0080     E  	mov _builtin_holtek_udivmodqi4_2[0],a
 166  0005  0F64        	mov a,100
 166  0006  0080     E  	mov _builtin_holtek_udivmodqi4_2[1],a
 166  0007              	fcall _builtin_holtek_udivmodqi4
 166  000E  0700     E  	mov a,_builtin_holtek_udivmodqi4_2[0]
 166  000F  0080     E  	mov ra,a
 166  0010  1F00     E  	clr _builtin_holtek_udivmodqi4_2[3]
 166  0011  0700     E  	mov a,ra
 166  0012  0080     E  	mov _builtin_holtek_udivmodqi4_2[0],a
 166  0013  0F0A        	mov a,10
 166  0014  0080     E  	mov _builtin_holtek_udivmodqi4_2[1],a
 166  0015              	fcall _builtin_holtek_udivmodqi4
 166  001C  0700     E  	mov a,_builtin_holtek_udivmodqi4_2[2]
 166  001D  0080     E  	mov ra,a
 166  001E  0F30        	mov a,48
 166  001F  0380     E  	addm a,ra
 166  0020  0700     E  	mov a,ra
 166  0021              	fcall _LCD_Senddata
 167  0028              #line 167 "C:\Users\IIIT\Desktop\ADXL345\try1\ADXL345_SPI\ADXL345_SPI.c"
 167  0028  1F00     E  	clr _builtin_holtek_udivmodqi4_2[3]
 167  0029  0700     R  	mov a,_PrintLCD_2[0]
 167  002A  0080     E  	mov _builtin_holtek_udivmodqi4_2[0],a
 167  002B  0F0A        	mov a,10
 167  002C  0080     E  	mov _builtin_holtek_udivmodqi4_2[1],a
 167  002D              	fcall _builtin_holtek_udivmodqi4
 167  0034  0700     E  	mov a,_builtin_holtek_udivmodqi4_2[0]
 167  0035  0080     E  	mov ra,a
 167  0036  1F00     E  	clr _builtin_holtek_udivmodqi4_2[3]
 167  0037  0700     E  	mov a,ra
 167  0038  0080     E  	mov _builtin_holtek_udivmodqi4_2[0],a
 167  0039  0F0A        	mov a,10
 167  003A  0080     E  	mov _builtin_holtek_udivmodqi4_2[1],a
 167  003B              	fcall _builtin_holtek_udivmodqi4
 167  0042  0700     E  	mov a,_builtin_holtek_udivmodqi4_2[2]
 167  0043  0080     E  	mov ra,a
 167  0044  0F30        	mov a,48
 167  0045  0380     E  	addm a,ra
 167  0046  0700     E  	mov a,ra
 167  0047              	fcall _LCD_Senddata
 168  004E              #line 168 "C:\Users\IIIT\Desktop\ADXL345\try1\ADXL345_SPI\ADXL345_SPI.c"
 168  004E  1F00     E  	clr _builtin_holtek_udivmodqi4_2[3]
 168  004F  0700     R  	mov a,_PrintLCD_2[0]
 168  0050  0080     E  	mov _builtin_holtek_udivmodqi4_2[0],a
 168  0051  0F0A        	mov a,10
 168  0052  0080     E  	mov _builtin_holtek_udivmodqi4_2[1],a
 168  0053              	fcall _builtin_holtek_udivmodqi4
 168  005A  0700     E  	mov a,_builtin_holtek_udivmodqi4_2[2]
 168  005B  0080     E  	mov ra,a
 168  005C  0F30        	mov a,48
 168  005D  0380     E  	addm a,ra
 168  005E  0700     E  	mov a,ra
 168  005F              	fcall _LCD_Senddata
 168  0066  0003        	ret
 168  0067              _PrintLCD endp
 168  0067              #line 168 "C:\Users\IIIT\Desktop\ADXL345\try1\ADXL345_SPI\ADXL345_SPI.c"
"File: ADXL345_SPI.c  Assembler  Version HGASM0202      Page 11

 168  0067              #pragma debug scope 1 1
 168  0067              public _LCD_Reset
 168  0067              #pragma debug scope 11 1
 242  0067              #line 242 "C:\Users\IIIT\Desktop\ADXL345\try1\ADXL345_SPI\ADXL345_SPI.c"
 242  0000              _LCD_Reset .section 'code'
 242  0000              _LCD_Reset proc
 243  0000              #line 243 "C:\Users\IIIT\Desktop\ADXL345\try1\ADXL345_SPI\ADXL345_SPI.c"
 243  0000  0F38        	mov a,56
 243  0001              	fcall _LCD_Cmd
 247  0008              #line 247 "C:\Users\IIIT\Desktop\ADXL345\try1\ADXL345_SPI\ADXL345_SPI.c"
 247  0008  0F0C        	mov a,12
 247  0009              	fcall _LCD_Cmd
 250  0010              #line 250 "C:\Users\IIIT\Desktop\ADXL345\try1\ADXL345_SPI\ADXL345_SPI.c"
 250  0010  0F06        	mov a,6
 250  0011              	fcall _LCD_Cmd
 253  0018              #line 253 "C:\Users\IIIT\Desktop\ADXL345\try1\ADXL345_SPI\ADXL345_SPI.c"
 253  0018  0F01        	mov a,1
 253  0019              	fcall _LCD_Cmd
 254  0020              #line 254 "C:\Users\IIIT\Desktop\ADXL345\try1\ADXL345_SPI\ADXL345_SPI.c"
 254  0020  0F02        	mov a,2
 254  0021              	fcall _LCD_Cmd
 254  0028  0003        	ret
 254  0029              _LCD_Reset endp
 254  0029              #line 254 "C:\Users\IIIT\Desktop\ADXL345\try1\ADXL345_SPI\ADXL345_SPI.c"
 254  0029              #pragma debug scope 1 1
 254  0029              public _main
 254  0029              #pragma debug scope 12 1
  49  0029              #line 49 "C:\Users\IIIT\Desktop\ADXL345\try1\ADXL345_SPI\ADXL345_SPI.c"
  49  0029              IFDEF WITH_DEFAULT_STARTUP
  49  0029              extern _main_initial0:near
  49  0029              extern _main_startup:near
  49  0029              ENDIF
  49  0029              
  49  0029              ROMBANK 0 @start
  49  0000              @start .section com_l 'code'
  49  0000              _main_startup1:
  49  0000              @start .section com_e 'code'
  49  0000  0F00     R  	mov a,bank _main
  49  0001  008B        	mov bp,a
  49  0002  2800     R  	jmp _main
  49  0003              
  49  0000              _main .section 'code'
  49  0000              _main proc
  50  0000              #line 50 "C:\Users\IIIT\Desktop\ADXL345\try1\ADXL345_SPI\ADXL345_SPI.c"
  50  0000              	fcall _PinSet
  51  0007              #line 51 "C:\Users\IIIT\Desktop\ADXL345\try1\ADXL345_SPI\ADXL345_SPI.c"
  51  0007  0F14        	mov a,20
  51  0008  0080     R  	mov _Delay100us_2[0],a
  51  0009  1F00     R  	clr _Delay100us_2[1]
  51  000A              	fcall _Delay100us
  52  0011              #line 52 "C:\Users\IIIT\Desktop\ADXL345\try1\ADXL345_SPI\ADXL345_SPI.c"
  52  0011  0F0B        	mov a,11
  52  0012  0080     R  	mov _ADXL345_SPI_Write_2[0],a
  52  0013  0F31        	mov a,49
  52  0014              	fcall _ADXL345_SPI_Write
  53  001B              #line 53 "C:\Users\IIIT\Desktop\ADXL345\try1\ADXL345_SPI\ADXL345_SPI.c"
  53  001B  0F08        	mov a,8
  53  001C  0080     R  	mov _ADXL345_SPI_Write_2[0],a
  53  001D  0F2D        	mov a,45
  53  001E              	fcall _ADXL345_SPI_Write
"File: ADXL345_SPI.c  Assembler  Version HGASM0202      Page 12

  56  0025              #line 56 "C:\Users\IIIT\Desktop\ADXL345\try1\ADXL345_SPI\ADXL345_SPI.c"
  56  0025              	fcall _LCD_Reset
  56  002C              _L25:
  76  002C              #line 76 "C:\Users\IIIT\Desktop\ADXL345\try1\ADXL345_SPI\ADXL345_SPI.c"
  76  002C  0F33        	mov a,51
  76  002D              	fcall _ADXL345_SPI_Read
  76  0034  0F32        	mov a,50
  76  0035              	fcall _ADXL345_SPI_Read
  76  003C  0080     E  	mov rb,a
  76  003D  1F00     E  	clr rc
  77  003E              #line 77 "C:\Users\IIIT\Desktop\ADXL345\try1\ADXL345_SPI\ADXL345_SPI.c"
  77  003E  340A        	clr c
  77  003F  1A00     E  	rlca rb
  77  0040  0080     R  	mov _AccX[0],a
  77  0041  1A00     E  	rlca rc
  77  0042  0080     R  	mov _AccX[1],a
  77  0043  340A        	clr c
  77  0044  1A80     R  	rlc _AccX[0]
  77  0045  1A80     R  	rlc _AccX[1]
  78  0046              #line 78 "C:\Users\IIIT\Desktop\ADXL345\try1\ADXL345_SPI\ADXL345_SPI.c"
  78  0046  0F35        	mov a,53
  78  0047              	fcall _ADXL345_SPI_Read
  78  004E  0F34        	mov a,52
  78  004F              	fcall _ADXL345_SPI_Read
  78  0056  0080     E  	mov rb,a
  78  0057  1F00     E  	clr rc
  79  0058              #line 79 "C:\Users\IIIT\Desktop\ADXL345\try1\ADXL345_SPI\ADXL345_SPI.c"
  79  0058  340A        	clr c
  79  0059  1A00     E  	rlca rb
  79  005A  0080     R  	mov _AccY[0],a
  79  005B  1A00     E  	rlca rc
  79  005C  0080     R  	mov _AccY[1],a
  79  005D  340A        	clr c
  79  005E  1A80     R  	rlc _AccY[0]
  79  005F  1A80     R  	rlc _AccY[1]
  80  0060              #line 80 "C:\Users\IIIT\Desktop\ADXL345\try1\ADXL345_SPI\ADXL345_SPI.c"
  80  0060  0F37        	mov a,55
  80  0061              	fcall _ADXL345_SPI_Read
  80  0068  0F36        	mov a,54
  80  0069              	fcall _ADXL345_SPI_Read
  80  0070  0080     E  	mov rb,a
  80  0071  1F00     E  	clr rc
  81  0072              #line 81 "C:\Users\IIIT\Desktop\ADXL345\try1\ADXL345_SPI\ADXL345_SPI.c"
  81  0072  340A        	clr c
  81  0073  1A00     E  	rlca rb
  81  0074  0080     R  	mov _AccZ[0],a
  81  0075  1A00     E  	rlca rc
  81  0076  0080     R  	mov _AccZ[1],a
  81  0077  340A        	clr c
  81  0078  1A80     R  	rlc _AccZ[0]
  81  0079  1A80     R  	rlc _AccZ[1]
  96  007A              #line 96 "C:\Users\IIIT\Desktop\ADXL345\try1\ADXL345_SPI\ADXL345_SPI.c"
  96  007A  0F00        	mov a,0
  96  007B              	fcall _ADXL345_SPI_Read
  96  0082  0080     E  	mov ra,a
  96  0083  0700     E  	mov a,ra
  96  0084  0080     R  	mov _deviceID[0],a
  96  0085  1F00     R  	clr _deviceID[1]
  97  0086              #line 97 "C:\Users\IIIT\Desktop\ADXL345\try1\ADXL345_SPI\ADXL345_SPI.c"
  97  0086  0FC0        	mov a,192
"File: ADXL345_SPI.c  Assembler  Version HGASM0202      Page 13

  97  0087              	fcall _LCD_Cmd
  98  008E              #line 98 "C:\Users\IIIT\Desktop\ADXL345\try1\ADXL345_SPI\ADXL345_SPI.c"
  98  008E  0700     R  	mov a,_deviceID[0]
  98  008F              	fcall _PrintLCD
 108  0096              #line 108 "C:\Users\IIIT\Desktop\ADXL345\try1\ADXL345_SPI\ADXL345_SPI.c"
 108  0096  0F64        	mov a,100
 108  0097  0080     R  	mov _Delay100us_2[0],a
 108  0098  1F00     R  	clr _Delay100us_2[1]
 108  0099              	fcall _Delay100us
 108  00A0  2800     R  	jmp _L25
 108  00A1  2800     R  	jmp $
 108  00A2              _main endp
 108  00A2              
 108  00A2              @dummy endp
 108  00A2              
 108  00A2              #line 108 "C:\Users\IIIT\Desktop\ADXL345\try1\ADXL345_SPI\ADXL345_SPI.c"
 108  00A2              #pragma debug scope 1 1
  46  00A2              #line 46 "C:\Users\IIIT\Desktop\ADXL345\try1\ADXL345_SPI\ADXL345_SPI.c"
  46  00A2              public _DATAZ1
  46  0000              @HCCINIT0_DATAZ1 .section 'data'
  46  0000  0002[       _DATAZ1	db 2 dup(0)
            00
            ]
  46  0002              #pragma debug variable 12 1 _DATAZ1 "DATAZ1"
  46  0002              
  46  0000              @HCCINIT .section 'data'
  45  0000              #line 45 "C:\Users\IIIT\Desktop\ADXL345\try1\ADXL345_SPI\ADXL345_SPI.c"
  45  0000              public _DATAZ0
  45  0000              @HCCINIT0_DATAZ0 .section 'data'
  45  0000  0002[       _DATAZ0	db 2 dup(0)
            00
            ]
  45  0002              #pragma debug variable 12 1 _DATAZ0 "DATAZ0"
  45  0002              
  45  0000              @HCCINIT .section 'data'
  44  0000              #line 44 "C:\Users\IIIT\Desktop\ADXL345\try1\ADXL345_SPI\ADXL345_SPI.c"
  44  0000              public _DATAY1
  44  0000              @HCCINIT0_DATAY1 .section 'data'
  44  0000  0002[       _DATAY1	db 2 dup(0)
            00
            ]
  44  0002              #pragma debug variable 12 1 _DATAY1 "DATAY1"
  44  0002              
  44  0000              @HCCINIT .section 'data'
  43  0000              #line 43 "C:\Users\IIIT\Desktop\ADXL345\try1\ADXL345_SPI\ADXL345_SPI.c"
  43  0000              public _DATAY0
  43  0000              @HCCINIT0_DATAY0 .section 'data'
  43  0000  0002[       _DATAY0	db 2 dup(0)
            00
            ]
  43  0002              #pragma debug variable 12 1 _DATAY0 "DATAY0"
  43  0002              
  43  0000              @HCCINIT .section 'data'
  42  0000              #line 42 "C:\Users\IIIT\Desktop\ADXL345\try1\ADXL345_SPI\ADXL345_SPI.c"
  42  0000              public _DATAX1
  42  0000              @HCCINIT0_DATAX1 .section 'data'
  42  0000  0002[       _DATAX1	db 2 dup(0)
            00
            ]
  42  0002              #pragma debug variable 12 1 _DATAX1 "DATAX1"
"File: ADXL345_SPI.c  Assembler  Version HGASM0202      Page 14

  42  0002              
  42  0000              @HCCINIT .section 'data'
  41  0000              #line 41 "C:\Users\IIIT\Desktop\ADXL345\try1\ADXL345_SPI\ADXL345_SPI.c"
  41  0000              public _DATAX0
  41  0000              @HCCINIT0_DATAX0 .section 'data'
  41  0000  0002[       _DATAX0	db 2 dup(0)
            00
            ]
  41  0002              #pragma debug variable 12 1 _DATAX0 "DATAX0"
  41  0002              
  41  0000              @HCCINIT .section 'data'
  40  0000              #line 40 "C:\Users\IIIT\Desktop\ADXL345\try1\ADXL345_SPI\ADXL345_SPI.c"
  40  0000              public _i
  40  0000              @HCCINIT0_i .section 'data'
  40  0000  0002[       _i	db 2 dup(0)
            00
            ]
  40  0002              #pragma debug variable 9 1 _i "i"
  40  0002              
  40  0000              @HCCINIT .section 'data'
  40  0000              #line 40 "C:\Users\IIIT\Desktop\ADXL345\try1\ADXL345_SPI\ADXL345_SPI.c"
  40  0000              public _b
  40  0000              @HCCINIT0_b .section 'data'
  40  0000  0002[       _b	db 2 dup(0)
            00
            ]
  40  0002              #pragma debug variable 9 1 _b "b"
  40  0002              
  40  0000              @HCCINIT .section 'data'
  40  0000              #line 40 "C:\Users\IIIT\Desktop\ADXL345\try1\ADXL345_SPI\ADXL345_SPI.c"
  40  0000              public _a
  40  0000              @HCCINIT0_a .section 'data'
  40  0000  0002[       _a	db 2 dup(0)
            00
            ]
  40  0002              #pragma debug variable 9 1 _a "a"
  40  0002              
  40  0000              @HCCINIT .section 'data'
  39  0000              #line 39 "C:\Users\IIIT\Desktop\ADXL345\try1\ADXL345_SPI\ADXL345_SPI.c"
  39  0000              public _deviceID
  39  0000              @HCCINIT0_deviceID .section 'data'
  39  0000  0002[       _deviceID	db 2 dup(0)
            00
            ]
  39  0002              #pragma debug variable 12 1 _deviceID "deviceID"
  39  0002              
  39  0000              @HCCINIT .section 'data'
  39  0000              public _ptrAcc
  39  0000              @HCCINIT	.section 'data'
  38  0000              #line 38 "C:\Users\IIIT\Desktop\ADXL345\try1\ADXL345_SPI\ADXL345_SPI.c"
  38  0000              @HCCINIT_ptrAcc .section 'data'
  38  0000              _ptrAcc label byte
  38  0000              #pragma debug pointer 42 11 1
  38  0000              #pragma debug pointer 42 11 1
  38  0000              #pragma debug array 43 42 3 1
  38  0000              #pragma debug array 43 42 3 1
  38  0000              #pragma debug variable 43 1 _ptrAcc "ptrAcc"
  38  0000              	dw offset _AccX
  38  0000              @ROMDATA_BASE .section inpage 'code'
  38  0000  0000     R  	dc offset _AccX
"File: ADXL345_SPI.c  Assembler  Version HGASM0202      Page 15

  38  0002              @HCCINIT_ptrAcc .section 'data'
  38  0002              	dw offset _AccY
  38  0001              @ROMDATA_BASE .section inpage 'code'
  38  0001  0000     R  	dc offset _AccY
  38  0004              @HCCINIT_ptrAcc .section 'data'
  38  0004              	dw offset _AccZ
  38  0002              @ROMDATA_BASE .section inpage 'code'
  38  0002  0000     R  	dc offset _AccZ
  38  0006              @HCCINIT_ptrAcc .section 'data'
  37  0006              #line 37 "C:\Users\IIIT\Desktop\ADXL345\try1\ADXL345_SPI\ADXL345_SPI.c"
  37  0006              public _AccZ
  37  0000              @HCCINIT0_AccZ .section 'data'
  37  0000  0002[       _AccZ	db 2 dup(0)
            00
            ]
  37  0002              #pragma debug variable 11 1 _AccZ "AccZ"
  37  0002              
  37  0000              @HCCINIT .section 'data'
  37  0000              #line 37 "C:\Users\IIIT\Desktop\ADXL345\try1\ADXL345_SPI\ADXL345_SPI.c"
  37  0000              public _AccY
  37  0000              @HCCINIT0_AccY .section 'data'
  37  0000  0002[       _AccY	db 2 dup(0)
            00
            ]
  37  0002              #pragma debug variable 11 1 _AccY "AccY"
  37  0002              
  37  0000              @HCCINIT .section 'data'
  37  0000              #line 37 "C:\Users\IIIT\Desktop\ADXL345\try1\ADXL345_SPI\ADXL345_SPI.c"
  37  0000              public _AccX
  37  0000              @HCCINIT0_AccX .section 'data'
  37  0000  0002[       _AccX	db 2 dup(0)
            00
            ]
  37  0002              #pragma debug variable 11 1 _AccX "AccX"
  37  0002              
  37  0000              @HCCINIT .section 'data'
  37  0000              public _ptrRawData
  35  0000              #line 35 "C:\Users\IIIT\Desktop\ADXL345\try1\ADXL345_SPI\ADXL345_SPI.c"
  35  0000              @HCCINIT_ptrRawData .section 'data'
  35  0000              _ptrRawData label byte
  35  0000              #pragma debug array 44 42 6 1
  35  0000              #pragma debug array 44 42 6 1
  35  0000              #pragma debug variable 44 1 _ptrRawData "ptrRawData"
  35  0000              	dw offset _RawDataX
  35  0003              @ROMDATA_BASE .section inpage 'code'
  35  0003  0000     R  	dc offset _RawDataX
  35  0002              @HCCINIT_ptrRawData .section 'data'
  35  0002              	dw (offset _RawDataX+2)
  35  0004              @ROMDATA_BASE .section inpage 'code'
  35  0004  0000     R  	dc (offset _RawDataX+2)
  35  0004              @HCCINIT_ptrRawData .section 'data'
  35  0004              	dw offset _RawDataY
  35  0005              @ROMDATA_BASE .section inpage 'code'
  35  0005  0000     R  	dc offset _RawDataY
  35  0006              @HCCINIT_ptrRawData .section 'data'
  35  0006              	dw (offset _RawDataY+2)
  35  0006              @ROMDATA_BASE .section inpage 'code'
  35  0006  0000     R  	dc (offset _RawDataY+2)
  35  0008              @HCCINIT_ptrRawData .section 'data'
  35  0008              	dw offset _RawDataZ
"File: ADXL345_SPI.c  Assembler  Version HGASM0202      Page 16

  35  0007              @ROMDATA_BASE .section inpage 'code'
  35  0007  0000     R  	dc offset _RawDataZ
  35  000A              @HCCINIT_ptrRawData .section 'data'
  35  000A              	dw (offset _RawDataZ+2)
  35  0008              @ROMDATA_BASE .section inpage 'code'
  35  0008  0000     R  	dc (offset _RawDataZ+2)
  35  000C              @HCCINIT_ptrRawData .section 'data'
  34  000C              #line 34 "C:\Users\IIIT\Desktop\ADXL345\try1\ADXL345_SPI\ADXL345_SPI.c"
  34  000C              public _RawDataZ
  34  0000              @HCCINIT0_RawDataZ .section 'data'
  34  0000  0004[       _RawDataZ	db 4 dup(0)
            00
            ]
  34  0004              #pragma debug array 45 11 2 1
  34  0004              #pragma debug array 45 11 2 1
  34  0004              #pragma debug variable 45 1 _RawDataZ "RawDataZ"
  34  0004              
  34  0000              @HCCINIT .section 'data'
  34  0000              #line 34 "C:\Users\IIIT\Desktop\ADXL345\try1\ADXL345_SPI\ADXL345_SPI.c"
  34  0000              public _RawDataY
  34  0000              @HCCINIT0_RawDataY .section 'data'
  34  0000  0004[       _RawDataY	db 4 dup(0)
            00
            ]
  34  0004              #pragma debug variable 45 1 _RawDataY "RawDataY"
  34  0004              
  34  0000              @HCCINIT .section 'data'
  34  0000              #line 34 "C:\Users\IIIT\Desktop\ADXL345\try1\ADXL345_SPI\ADXL345_SPI.c"
  34  0000              public _RawDataX
  34  0000              @HCCINIT0_RawDataX .section 'data'
  34  0000  0004[       _RawDataX	db 4 dup(0)
            00
            ]
  34  0004              #pragma debug variable 45 1 _RawDataX "RawDataX"
  34  0004              
  34  0000              @HCCINIT .section 'data'
  34  0000              #pragma debug struct_end
  34  0000              #pragma debug struct_end
  34  0000              #pragma debug union_end
  34  0000              #pragma debug union_end
  34  0000              #pragma debug variable 47 1 ___pa "__pa" 1
  34  0000              #pragma debug struct_end
  34  0000              #pragma debug struct_end
  34  0000              #pragma debug union_end
  34  0000              #pragma debug union_end
  34  0000              #pragma debug variable 49 1 ___pac "__pac" 1
  34  0000              #pragma debug struct_end
  34  0000              #pragma debug struct_end
  34  0000              #pragma debug union_end
  34  0000              #pragma debug union_end
  34  0000              #pragma debug variable 51 1 ___pb "__pb" 1
  34  0000              #pragma debug struct_end
  34  0000              #pragma debug struct_end
  34  0000              #pragma debug union_end
  34  0000              #pragma debug union_end
  34  0000              #pragma debug variable 53 1 ___pbc "__pbc" 1
  34  0000              #pragma debug struct_end
  34  0000              #pragma debug struct_end
  34  0000              #pragma debug union_end
  34  0000              #pragma debug union_end
"File: ADXL345_SPI.c  Assembler  Version HGASM0202      Page 17

  34  0000              #pragma debug variable 55 1 ___pg "__pg" 1
  34  0000              #pragma debug struct_end
  34  0000              #pragma debug struct_end
  34  0000              #pragma debug union_end
  34  0000              #pragma debug union_end
  34  0000              #pragma debug variable 57 1 ___pgc "__pgc" 1
  34  0000              #pragma debug struct_end
  34  0000              #pragma debug struct_end
  34  0000              #pragma debug union_end
  34  0000              #pragma debug union_end
  34  0000              #pragma debug variable 59 1 ___ph "__ph" 1
  34  0000              #pragma debug struct_end
  34  0000              #pragma debug struct_end
  34  0000              #pragma debug union_end
  34  0000              #pragma debug union_end
  34  0000              #pragma debug variable 61 1 ___phc "__phc" 1
  34  0000              #pragma debug struct_end
  34  0000              #pragma debug struct_end
  34  0000              #pragma debug union_end
  34  0000              #pragma debug union_end
  34  0000              #pragma debug variable 63 1 ___smod "__smod" 1
  34  0000              #pragma debug struct_end
  34  0000              #pragma debug struct_end
  34  0000              #pragma debug union_end
  34  0000              #pragma debug union_end
  34  0000              #pragma debug variable 65 1 ___wdtc "__wdtc" 1
  34  0000              #pragma debug struct_end
  34  0000              #pragma debug struct_end
  34  0000              #pragma debug union_end
  34  0000              #pragma debug union_end
  34  0000              #pragma debug variable 67 1 ___cp0c "__cp0c" 1
  34  0000              #pragma debug struct_end
  34  0000              #pragma debug struct_end
  34  0000              #pragma debug union_end
  34  0000              #pragma debug union_end
  34  0000              #pragma debug variable 69 1 ___cp1c "__cp1c" 1
  34  0000              #pragma debug struct_end
  34  0000              #pragma debug struct_end
  34  0000              #pragma debug union_end
  34  0000              #pragma debug union_end
  34  0000              #pragma debug variable 71 1 ___scomc "__scomc" 1
  49  0000              #line 49 "C:\Users\IIIT\Desktop\ADXL345\try1\ADXL345_SPI\ADXL345_SPI.c"
  49  0000              @code .section at 0 'code'
  49  0000  1F0B        	clr bp
  49  0001  2800     R  	jmp _main_startup1
  49  0002              
  49  0002              extern _builtin_holtek_udivmodqi4_2:byte
  49  0002              extern _builtin_holtek_udivmodqi4:near
  49  0002              
  49  0002              ; 
  49  0002              ; Generated by holtek-gcc v3.18, Wed Jul 18 22:28:36 2018
  49  0002              ; Rebuild 521
  49  0002              ; end of file


        0 Errors, 0